target datalayout = "e-m:e-p270:32:32-p271:32:32-p272:64:64-i64:64-i128:128-f80:128-n8:16:32:64-S128"
target triple = "x86_64-pc-linux-gnu"

%struct.nstime_t = type { i64, i32 }

@.str.5 = private unnamed_addr constant [24 x i8] c"Time can't be converted\00", align 1

; Function Attrs: null_pointer_is_valid sspstrong uwtable
define ptr @dissect_nttime_hyper_1sec(ptr noundef %0, ptr noundef %1, i32 noundef %2, i32 noundef %3, i32 noundef %4) #1 {
  %6 = alloca ptr, align 8
  %7 = alloca ptr, align 8
  %8 = alloca ptr, align 8
  %9 = alloca i32, align 4
  %10 = alloca i32, align 4
  %11 = alloca i32, align 4
  %12 = alloca i64, align 8
  %13 = alloca %struct.nstime_t, align 8
  %14 = alloca i32, align 4
  store ptr %0, ptr %7, align 8
  store ptr %1, ptr %8, align 8
  store i32 %2, ptr %9, align 4
  store i32 %3, ptr %10, align 4
  store i32 %4, ptr %11, align 4
  %15 = load ptr, ptr %8, align 8
  %16 = icmp ne ptr %15, null
  br i1 %16, label %17, label %40

17:                                               ; preds = %5
  call void @llvm.lifetime.start.p0(i64 8, ptr %12) #8
  call void @llvm.lifetime.start.p0(i64 16, ptr %13) #8
  %18 = load ptr, ptr %7, align 8
  %19 = load i32, ptr %9, align 4
  %20 = load i32, ptr %11, align 4
  %21 = call i64 @tvb_get_uint64(ptr noundef %18, i32 noundef %19, i32 noundef %20)
  store i64 %21, ptr %12, align 8
  %22 = load i64, ptr %12, align 8
  %23 = call zeroext i1 @filetime_1sec_to_nstime(ptr noundef %13, i64 noundef %22)
  br i1 %23, label %24, label %30

24:                                               ; preds = %17
  %25 = load ptr, ptr %8, align 8
  %26 = load i32, ptr %10, align 4
  %27 = load ptr, ptr %7, align 8
  %28 = load i32, ptr %9, align 4
  %29 = call ptr @proto_tree_add_time(ptr noundef %25, i32 noundef %26, ptr noundef %27, i32 noundef %28, i32 noundef 8, ptr noundef %13)
  store ptr %29, ptr %6, align 8
  store i32 1, ptr %14, align 4
  br label %39

30:                                               ; preds = %17
  %31 = load i64, ptr %12, align 8
  %32 = getelementptr inbounds nuw %struct.nstime_t, ptr %13, i32 0, i32 0
  store i64 %31, ptr %32, align 8
  %33 = getelementptr inbounds nuw %struct.nstime_t, ptr %13, i32 0, i32 1
  store i32 0, ptr %33, align 8
  %34 = load ptr, ptr %8, align 8
  %35 = load i32, ptr %10, align 4
  %36 = load ptr, ptr %7, align 8
  %37 = load i32, ptr %9, align 4
  %38 = call ptr (ptr, i32, ptr, i32, i32, ptr, ptr, ...) @proto_tree_add_time_format_value(ptr noundef %34, i32 noundef %35, ptr noundef %36, i32 noundef %37, i32 noundef 8, ptr noundef %13, ptr noundef @.str.5)
  store ptr %38, ptr %6, align 8
  store i32 1, ptr %14, align 4
  br label %39

39:                                               ; preds = %30, %24
  call void @llvm.lifetime.end.p0(i64 16, ptr %13) #8
  call void @llvm.lifetime.end.p0(i64 8, ptr %12) #8
  br label %41

40:                                               ; preds = %5
  store ptr null, ptr %6, align 8
  br label %41

41:                                               ; preds = %40, %39
  %42 = load ptr, ptr %6, align 8
  ret ptr %42
}