; Function Attrs: null_pointer_is_valid sspstrong uwtable
define ptr @dissect_nttime_hyper_1sec(ptr noundef %0, ptr noundef %1, i32 noundef %2, i32 noundef %3, i32 noundef %4) local_unnamed_addr #1 {
  %6 = alloca %struct.nstime_t, align 8
  %.not = icmp eq ptr %1, null
  br i1 %.not, label %16, label %7

7:                                                ; preds = %5
  call void @llvm.lifetime.start.p0(i64 16, ptr nonnull %6) #7
  %8 = tail call i64 @tvb_get_uint64(ptr noundef %0, i32 noundef %2, i32 noundef %4)
  %9 = call zeroext i1 @filetime_1sec_to_nstime(ptr noundef nonnull %6, i64 noundef %8)
  br i1 %9, label %10, label %12

10:                                               ; preds = %7
  %11 = call ptr @proto_tree_add_time(ptr noundef nonnull %1, i32 noundef %3, ptr noundef %0, i32 noundef %2, i32 noundef 8, ptr noundef nonnull %6)
  br label %15

12:                                               ; preds = %7
  store i64 %8, ptr %6, align 8
  %13 = getelementptr inbounds nuw i8, ptr %6, i64 8
  store i32 0, ptr %13, align 8
  %14 = call ptr (ptr, i32, ptr, i32, i32, ptr, ptr, ...) @proto_tree_add_time_format_value(ptr noundef nonnull %1, i32 noundef %3, ptr noundef %0, i32 noundef %2, i32 noundef 8, ptr noundef nonnull %6, ptr noundef nonnull @.str.5)
  br label %15

15:                                               ; preds = %12, %10
  %.0 = phi ptr [ %11, %10 ], [ %14, %12 ]
  call void @llvm.lifetime.end.p0(i64 16, ptr nonnull %6) #7
  br label %16

16:                                               ; preds = %5, %15
  %.1 = phi ptr [ %.0, %15 ], [ null, %5 ]
  ret ptr %.1
}